; Function Attrs: inlinehint mustprogress nounwind uwtable
define internal fastcc void @_ZZN7xgboost10collective12RabitTracker3RunEvEN5StateD2Ev(ptr noundef nonnull readonly align 8 captures(none) dereferenceable(40) %0) unnamed_addr #7 align 2 personality ptr @__gxx_personality_v0 {
  %2 = getelementptr inbounds nuw i8, ptr %0, i64 16
  %3 = load ptr, ptr %2, align 8, !tbaa !193
  %4 = getelementptr inbounds nuw i8, ptr %0, i64 24
  %5 = load ptr, ptr %4, align 8, !tbaa !844
  invoke void @_ZNSt12_Destroy_auxILb0EE9__destroyIPN7xgboost10collective12RabitTracker11WorkerProxyEEEvT_S7_(ptr noundef %3, ptr noundef %5)
          to label %_ZSt8_DestroyIPN7xgboost10collective12RabitTracker11WorkerProxyES3_EvT_S5_RSaIT0_E.exit.i unwind label %13

_ZSt8_DestroyIPN7xgboost10collective12RabitTracker11WorkerProxyES3_EvT_S5_RSaIT0_E.exit.i: ; preds = %1
  %6 = load ptr, ptr %2, align 8, !tbaa !193
  %.not.i.i.i = icmp eq ptr %6, null
  br i1 %.not.i.i.i, label %_ZNSt6vectorIN7xgboost10collective12RabitTracker11WorkerProxyESaIS3_EED2Ev.exit, label %7

7:                                                ; preds = %_ZSt8_DestroyIPN7xgboost10collective12RabitTracker11WorkerProxyES3_EvT_S5_RSaIT0_E.exit.i
  %8 = getelementptr inbounds nuw i8, ptr %0, i64 32
  %9 = load ptr, ptr %8, align 8, !tbaa !851
  %10 = ptrtoint ptr %9 to i64
  %11 = ptrtoint ptr %6 to i64
  %12 = sub i64 %10, %11
  tail call void @_ZdlPvm(ptr noundef nonnull %6, i64 noundef %12) #39
  br label %_ZNSt6vectorIN7xgboost10collective12RabitTracker11WorkerProxyESaIS3_EED2Ev.exit

13:                                               ; preds = %1
  %14 = landingpad { ptr, i32 }
          catch ptr null
  %15 = extractvalue { ptr, i32 } %14, 0
  tail call void @__clang_call_terminate(ptr %15) #36
  unreachable

_ZNSt6vectorIN7xgboost10collective12RabitTracker11WorkerProxyESaIS3_EED2Ev.exit: ; preds = %_ZSt8_DestroyIPN7xgboost10collective12RabitTracker11WorkerProxyES3_EvT_S5_RSaIT0_E.exit.i, %7
  ret void
}